target datalayout = "e-m:e-p270:32:32-p271:32:32-p272:64:64-i64:64-i128:128-f80:128-n8:16:32:64-S128"
target triple = "x86_64-pc-linux-gnu"

%class.InterfaceTreeCacheModel = type { %class.QIdentityProxyModel, ptr, ptr, %class.QList, %class.QList }
%class.QIdentityProxyModel = type { %class.QAbstractProxyModel }
%class.QAbstractProxyModel = type { %class.QAbstractItemModel }
%class.QAbstractItemModel = type { %class.QObject }
%class.QObject = type { ptr, %class.QScopedPointer }
%class.QScopedPointer = type { ptr }
%class.QList = type { %struct.QArrayDataPointer }
%struct.QArrayDataPointer = type { ptr, ptr, i64 }
%class.QMap.2 = type { %"class.QtPrivate::QExplicitlySharedDataPointerV2.3" }
%"class.QtPrivate::QExplicitlySharedDataPointerV2.3" = type { ptr }
%class.QMapData = type { %class.QSharedData, %"class.std::map" }
%class.QSharedData = type { %class.QAtomicInt }
%class.QAtomicInt = type { %class.QAtomicInteger }
%class.QAtomicInteger = type { %class.QBasicAtomicInteger }
%class.QBasicAtomicInteger = type { %"struct.std::atomic" }
%"struct.std::atomic" = type { %"struct.std::__atomic_base" }
%"struct.std::__atomic_base" = type { i32 }
%"class.std::map" = type { %"class.std::_Rb_tree" }
%"class.std::_Rb_tree" = type { %"struct.std::_Rb_tree<int, std::pair<const int, QSharedPointer<QMap<InterfaceTreeColumns, QVariant>>>, std::_Select1st<std::pair<const int, QSharedPointer<QMap<InterfaceTreeColumns, QVariant>>>>, std::less<int>>::_Rb_tree_impl" }
%"struct.std::_Rb_tree<int, std::pair<const int, QSharedPointer<QMap<InterfaceTreeColumns, QVariant>>>, std::_Select1st<std::pair<const int, QSharedPointer<QMap<InterfaceTreeColumns, QVariant>>>>, std::less<int>>::_Rb_tree_impl" = type { [8 x i8], %"struct.std::_Rb_tree_header" }
%"struct.std::_Rb_tree_header" = type { %"struct.std::_Rb_tree_node_base", i64 }
%"struct.std::_Rb_tree_node_base" = type { i32, ptr, ptr, ptr }
%struct.QArrayData = type { %class.QBasicAtomicInteger, %class.QFlags.22, i64 }
%class.QFlags.22 = type { i32 }

; Function Attrs: mustprogress nounwind null_pointer_is_valid sspstrong uwtable
define linkonce_odr noundef ptr @_ZNKSt8_Rb_treeIiSt4pairIKi14QSharedPointerI4QMapI20InterfaceTreeColumns8QVariantEEESt10_Select1stIS8_ESt4lessIiESaIS8_EE9_M_mbeginEv(ptr noundef align 8 dereferenceable_or_null(48) %0) #2 comdat align 2 {
  %2 = alloca ptr, align 8
  store ptr %0, ptr %2, align 8
  %3 = load ptr, ptr %2, align 8
  %4 = getelementptr inbounds nuw %"class.std::_Rb_tree", ptr %3, i32 0, i32 0
  %5 = getelementptr inbounds i8, ptr %4, i64 8
  %6 = getelementptr inbounds nuw %"struct.std::_Rb_tree_header", ptr %5, i32 0, i32 0
  %7 = getelementptr inbounds nuw %"struct.std::_Rb_tree_node_base", ptr %6, i32 0, i32 1
  %8 = load ptr, ptr %7, align 8
  ret ptr %8
}

; Function Attrs: mustprogress nounwind null_pointer_is_valid sspstrong uwtable
define linkonce_odr void @_ZNSt15__new_allocatorISt13_Rb_tree_nodeISt4pairIKi14QSharedPointerI4QMapI20InterfaceTreeColumns8QVariantEEEEED2Ev(ptr noundef align 1 dereferenceable_or_null(1) %0) unnamed_addr #2 comdat align 2 {
  %2 = alloca ptr, align 8
  store ptr %0, ptr %2, align 8
  ret void
}

; Function Attrs: mustprogress nounwind null_pointer_is_valid sspstrong uwtable
define linkonce_odr noundef ptr @_ZNSt8_Rb_treeIiSt4pairIKi14QSharedPointerI4QMapI20InterfaceTreeColumns8QVariantEEESt10_Select1stIS8_ESt4lessIiESaIS8_EE8_M_beginEv(ptr noundef align 8 dereferenceable_or_null(48) %0) #2 comdat align 2 {
  %2 = alloca ptr, align 8
  store ptr %0, ptr %2, align 8
  %3 = load ptr, ptr %2, align 8
  %4 = call noundef ptr @_ZNKSt8_Rb_treeIiSt4pairIKi14QSharedPointerI4QMapI20InterfaceTreeColumns8QVariantEEESt10_Select1stIS8_ESt4lessIiESaIS8_EE9_M_mbeginEv(ptr noundef align 8 dereferenceable_or_null(48) %3) #22
  ret ptr %4
}

; Function Attrs: mustprogress nounwind null_pointer_is_valid sspstrong uwtable
define linkonce_odr void @_ZNSt8_Rb_treeIiSt4pairIKi14QSharedPointerI4QMapI20InterfaceTreeColumns8QVariantEEESt10_Select1stIS8_ESt4lessIiESaIS8_EED2Ev(ptr noundef align 8 dereferenceable_or_null(48) %0) unnamed_addr #2 comdat align 2 personality ptr @__gxx_personality_v0 {
  %2 = alloca ptr, align 8
  store ptr %0, ptr %2, align 8
  %3 = load ptr, ptr %2, align 8
  %4 = call noundef ptr @_ZNSt8_Rb_treeIiSt4pairIKi14QSharedPointerI4QMapI20InterfaceTreeColumns8QVariantEEESt10_Select1stIS8_ESt4lessIiESaIS8_EE8_M_beginEv(ptr noundef align 8 dereferenceable_or_null(48) %3) #22
  invoke void @_ZNSt8_Rb_treeIiSt4pairIKi14QSharedPointerI4QMapI20InterfaceTreeColumns8QVariantEEESt10_Select1stIS8_ESt4lessIiESaIS8_EE8_M_eraseEPSt13_Rb_tree_nodeIS8_E(ptr noundef align 8 dereferenceable_or_null(48) %3, ptr noundef %4)
          to label %5 unwind label %7

5:                                                ; preds = %1
  %6 = getelementptr inbounds nuw %"class.std::_Rb_tree", ptr %3, i32 0, i32 0
  call void @_ZNSt15__new_allocatorISt13_Rb_tree_nodeISt4pairIKi14QSharedPointerI4QMapI20InterfaceTreeColumns8QVariantEEEEED2Ev(ptr noundef align 8 dereferenceable_or_null(48) %6) #22
  ret void

7:                                                ; preds = %1
  %8 = landingpad { ptr, i32 }
          catch ptr null
  %9 = extractvalue { ptr, i32 } %8, 0
  call void @__clang_call_terminate(ptr %9) #25
  unreachable
}

; Function Attrs: mustprogress nounwind null_pointer_is_valid sspstrong uwtable
define linkonce_odr noundef i32 @_ZNSt13__atomic_baseIiEmmEv(ptr noundef align 4 dereferenceable_or_null(4) %0) #2 comdat align 2 {
  %2 = alloca ptr, align 8
  %3 = alloca i32, align 4
  %4 = alloca i32, align 4
  store ptr %0, ptr %2, align 8
  %5 = load ptr, ptr %2, align 8
  %6 = getelementptr inbounds nuw %"struct.std::__atomic_base", ptr %5, i32 0, i32 0
  store i32 1, ptr %3, align 4
  %7 = load i32, ptr %3, align 4
  %8 = atomicrmw sub ptr %6, i32 %7 seq_cst, align 4
  %9 = sub i32 %8, %7
  store i32 %9, ptr %4, align 4
  %10 = load i32, ptr %4, align 4
  ret i32 %10
}

; Function Attrs: mustprogress nounwind null_pointer_is_valid sspstrong uwtable
define linkonce_odr noundef zeroext i1 @_ZN10QArrayData5derefEv(ptr noundef align 8 dereferenceable_or_null(16) %0) #2 comdat align 2 {
  %2 = alloca ptr, align 8
  store ptr %0, ptr %2, align 8
  %3 = load ptr, ptr %2, align 8
  %4 = getelementptr inbounds nuw %struct.QArrayData, ptr %3, i32 0, i32 0
  %5 = call noundef zeroext i1 @_ZN19QBasicAtomicIntegerIiE5derefEv(ptr noundef align 4 dereferenceable_or_null(4) %4) #22
  ret i1 %5
}

; Function Attrs: mustprogress nounwind null_pointer_is_valid sspstrong uwtable
define linkonce_odr void @_ZNSt3mapIi14QSharedPointerI4QMapI20InterfaceTreeColumns8QVariantEESt4lessIiESaISt4pairIKiS5_EEED2Ev(ptr noundef align 8 dereferenceable_or_null(48) %0) unnamed_addr #2 comdat align 2 {
  %2 = alloca ptr, align 8
  store ptr %0, ptr %2, align 8
  %3 = load ptr, ptr %2, align 8
  %4 = getelementptr inbounds nuw %"class.std::map", ptr %3, i32 0, i32 0
  call void @_ZNSt8_Rb_treeIiSt4pairIKi14QSharedPointerI4QMapI20InterfaceTreeColumns8QVariantEEESt10_Select1stIS8_ESt4lessIiESaIS8_EED2Ev(ptr noundef align 8 dereferenceable_or_null(48) %4) #22
  ret void
}

; Function Attrs: inlinehint mustprogress nounwind null_pointer_is_valid sspstrong uwtable
define linkonce_odr noundef zeroext i1 @_ZN10QAtomicOpsIiE5derefIiEEbRSt6atomicIT_E(ptr noundef align 4 dereferenceable(4) %0) #7 comdat align 2 {
  %2 = alloca ptr, align 8
  store ptr %0, ptr %2, align 8
  %3 = load ptr, ptr %2, align 8
  %4 = call noundef i32 @_ZNSt13__atomic_baseIiEmmEv(ptr noundef align 4 dereferenceable_or_null(4) %3) #22
  %5 = icmp ne i32 %4, 0
  ret i1 %5
}

; Function Attrs: mustprogress nounwind null_pointer_is_valid sspstrong uwtable
define linkonce_odr void @_ZN15QTypedArrayDataI20InterfaceTreeColumnsE10deallocateEP10QArrayData(ptr noundef %0) #2 comdat align 2 {
  %2 = alloca ptr, align 8
  store ptr %0, ptr %2, align 8
  %3 = load ptr, ptr %2, align 8
  call void @_ZN10QArrayData10deallocateEPS_xx(ptr noundef %3, i64 noundef 4, i64 noundef 8) #22
  ret void
}

; Function Attrs: mustprogress nounwind null_pointer_is_valid sspstrong uwtable
define linkonce_odr void @_ZN9QtPrivate12QPodArrayOpsI20InterfaceTreeColumnsE10destroyAllEv(ptr noundef align 8 dereferenceable_or_null(24) %0) #2 comdat align 2 {
  %2 = alloca ptr, align 8
  store ptr %0, ptr %2, align 8
  ret void
}

; Function Attrs: mustprogress nounwind null_pointer_is_valid sspstrong uwtable
define linkonce_odr noundef ptr @_ZN17QArrayDataPointerI20InterfaceTreeColumnsEptEv(ptr noundef align 8 dereferenceable_or_null(24) %0) #2 comdat align 2 {
  %2 = alloca ptr, align 8
  store ptr %0, ptr %2, align 8
  %3 = load ptr, ptr %2, align 8
  ret ptr %3
}

; Function Attrs: mustprogress nounwind null_pointer_is_valid sspstrong uwtable
define linkonce_odr noundef zeroext i1 @_ZN17QArrayDataPointerI20InterfaceTreeColumnsE5derefEv(ptr noundef align 8 dereferenceable_or_null(24) %0) #2 comdat align 2 {
  %2 = alloca ptr, align 8
  store ptr %0, ptr %2, align 8
  %3 = load ptr, ptr %2, align 8
  %4 = getelementptr inbounds nuw %struct.QArrayDataPointer, ptr %3, i32 0, i32 0
  %5 = load ptr, ptr %4, align 8
  %6 = icmp ne ptr %5, null
  br i1 %6, label %7, label %11

7:                                                ; preds = %1
  %8 = getelementptr inbounds nuw %struct.QArrayDataPointer, ptr %3, i32 0, i32 0
  %9 = load ptr, ptr %8, align 8
  %10 = call noundef zeroext i1 @_ZN10QArrayData5derefEv(ptr noundef align 8 dereferenceable_or_null(16) %9) #22
  br label %11

11:                                               ; preds = %7, %1
  %12 = phi i1 [ true, %1 ], [ %10, %7 ]
  ret i1 %12
}

; Function Attrs: inlinehint mustprogress nounwind null_pointer_is_valid sspstrong uwtable
define linkonce_odr void @_ZN8QMapDataISt3mapIi14QSharedPointerI4QMapI20InterfaceTreeColumns8QVariantEESt4lessIiESaISt4pairIKiS6_EEEED2Ev(ptr noundef align 8 dereferenceable_or_null(56) %0) unnamed_addr #7 comdat align 2 {
  %2 = alloca ptr, align 8
  store ptr %0, ptr %2, align 8
  %3 = load ptr, ptr %2, align 8
  %4 = getelementptr inbounds nuw %class.QMapData, ptr %3, i32 0, i32 1
  call void @_ZNSt3mapIi14QSharedPointerI4QMapI20InterfaceTreeColumns8QVariantEESt4lessIiESaISt4pairIKiS5_EEED2Ev(ptr noundef align 8 dereferenceable_or_null(48) %4) #22
  ret void
}

; Function Attrs: mustprogress nounwind null_pointer_is_valid sspstrong uwtable
define linkonce_odr noundef zeroext i1 @_ZN19QBasicAtomicIntegerIiE5derefEv(ptr noundef align 4 dereferenceable_or_null(4) %0) #2 comdat align 2 {
  %2 = alloca ptr, align 8
  store ptr %0, ptr %2, align 8
  %3 = load ptr, ptr %2, align 8
  %4 = getelementptr inbounds nuw %class.QBasicAtomicInteger, ptr %3, i32 0, i32 0
  %5 = call noundef zeroext i1 @_ZN10QAtomicOpsIiE5derefIiEEbRSt6atomicIT_E(ptr noundef align 4 dereferenceable(4) %4) #22
  ret i1 %5
}

; Function Attrs: mustprogress nounwind null_pointer_is_valid sspstrong uwtable
define linkonce_odr void @_ZN17QArrayDataPointerI20InterfaceTreeColumnsED2Ev(ptr noundef align 8 dereferenceable_or_null(24) %0) unnamed_addr #2 comdat align 2 {
  %2 = alloca ptr, align 8
  store ptr %0, ptr %2, align 8
  %3 = load ptr, ptr %2, align 8
  %4 = call noundef zeroext i1 @_ZN17QArrayDataPointerI20InterfaceTreeColumnsE5derefEv(ptr noundef align 8 dereferenceable_or_null(24) %3) #22
  br i1 %4, label %9, label %5

5:                                                ; preds = %1
  %6 = call noundef ptr @_ZN17QArrayDataPointerI20InterfaceTreeColumnsEptEv(ptr noundef align 8 dereferenceable_or_null(24) %3) #22
  call void @_ZN9QtPrivate12QPodArrayOpsI20InterfaceTreeColumnsE10destroyAllEv(ptr noundef align 8 dereferenceable_or_null(24) %6) #22
  %7 = getelementptr inbounds nuw %struct.QArrayDataPointer, ptr %3, i32 0, i32 0
  %8 = load ptr, ptr %7, align 8
  call void @_ZN15QTypedArrayDataI20InterfaceTreeColumnsE10deallocateEP10QArrayData(ptr noundef %8) #22
  br label %9

9:                                                ; preds = %5, %1
  ret void
}

; Function Attrs: mustprogress nounwind null_pointer_is_valid sspstrong uwtable
define linkonce_odr void @_ZN9QtPrivate30QExplicitlySharedDataPointerV2I8QMapDataISt3mapIi14QSharedPointerI4QMapI20InterfaceTreeColumns8QVariantEESt4lessIiESaISt4pairIKiS8_EEEEED2Ev(ptr noundef align 8 dereferenceable_or_null(8) %0) unnamed_addr #2 comdat align 2 {
  %2 = alloca ptr, align 8
  store ptr %0, ptr %2, align 8
  %3 = load ptr, ptr %2, align 8
  %4 = getelementptr inbounds nuw %"class.QtPrivate::QExplicitlySharedDataPointerV2.3", ptr %3, i32 0, i32 0
  %5 = load ptr, ptr %4, align 8
  %6 = icmp ne ptr %5, null
  br i1 %6, label %7, label %18

7:                                                ; preds = %1
  %8 = getelementptr inbounds nuw %"class.QtPrivate::QExplicitlySharedDataPointerV2.3", ptr %3, i32 0, i32 0
  %9 = load ptr, ptr %8, align 8
  %10 = getelementptr inbounds nuw %class.QSharedData, ptr %9, i32 0, i32 0
  %11 = call noundef zeroext i1 @_ZN19QBasicAtomicIntegerIiE5derefEv(ptr noundef align 4 dereferenceable_or_null(4) %10) #22
  br i1 %11, label %18, label %12

12:                                               ; preds = %7
  %13 = getelementptr inbounds nuw %"class.QtPrivate::QExplicitlySharedDataPointerV2.3", ptr %3, i32 0, i32 0
  %14 = load ptr, ptr %13, align 8
  %15 = icmp eq ptr %14, null
  br i1 %15, label %17, label %16

16:                                               ; preds = %12
  call void @_ZN8QMapDataISt3mapIi14QSharedPointerI4QMapI20InterfaceTreeColumns8QVariantEESt4lessIiESaISt4pairIKiS6_EEEED2Ev(ptr noundef align 8 dereferenceable_or_null(56) %14) #22
  call void @_ZdlPvm(ptr noundef %14, i64 noundef 56) #24
  br label %17

17:                                               ; preds = %16, %12
  br label %18

18:                                               ; preds = %17, %7, %1
  ret void
}

; Function Attrs: inlinehint mustprogress nounwind null_pointer_is_valid sspstrong uwtable
define linkonce_odr void @_ZN5QListI20InterfaceTreeColumnsED2Ev(ptr noundef align 8 dereferenceable_or_null(24) %0) unnamed_addr #7 comdat align 2 {
  %2 = alloca ptr, align 8
  store ptr %0, ptr %2, align 8
  %3 = load ptr, ptr %2, align 8
  %4 = getelementptr inbounds nuw %class.QList, ptr %3, i32 0, i32 0
  call void @_ZN17QArrayDataPointerI20InterfaceTreeColumnsED2Ev(ptr noundef align 8 dereferenceable_or_null(24) %4) #22
  ret void
}

; Function Attrs: inlinehint mustprogress nounwind null_pointer_is_valid sspstrong uwtable
define linkonce_odr void @_ZN4QMapIi14QSharedPointerIS_I20InterfaceTreeColumns8QVariantEEED2Ev(ptr noundef align 8 dereferenceable_or_null(8) %0) unnamed_addr #7 comdat align 2 {
  %2 = alloca ptr, align 8
  store ptr %0, ptr %2, align 8
  %3 = load ptr, ptr %2, align 8
  %4 = getelementptr inbounds nuw %class.QMap.2, ptr %3, i32 0, i32 0
  call void @_ZN9QtPrivate30QExplicitlySharedDataPointerV2I8QMapDataISt3mapIi14QSharedPointerI4QMapI20InterfaceTreeColumns8QVariantEESt4lessIiESaISt4pairIKiS8_EEEEED2Ev(ptr noundef align 8 dereferenceable_or_null(8) %4) #22
  ret void
}

; Function Attrs: mustprogress nounwind null_pointer_is_valid sspstrong uwtable
define void @_ZN23InterfaceTreeCacheModelD2Ev(ptr noundef align 8 dereferenceable_or_null(80) %0) unnamed_addr #2 align 2 {
  %2 = alloca ptr, align 8
  store ptr %0, ptr %2, align 8
  %3 = load ptr, ptr %2, align 8
  store ptr getelementptr inbounds inrange(-16, 432) ({ [56 x ptr] }, ptr @_ZTV23InterfaceTreeCacheModel, i32 0, i32 0, i32 2), ptr %3, align 8
  %4 = getelementptr inbounds nuw %class.InterfaceTreeCacheModel, ptr %3, i32 0, i32 2
  %5 = load ptr, ptr %4, align 8
  %6 = icmp eq ptr %5, null
  br i1 %6, label %8, label %7

7:                                                ; preds = %1
  call void @_ZN4QMapIi14QSharedPointerIS_I20InterfaceTreeColumns8QVariantEEED2Ev(ptr noundef align 8 dereferenceable_or_null(8) %5) #22
  call void @_ZdlPvm(ptr noundef %5, i64 noundef 8) #24
  br label %8

8:                                                ; preds = %7, %1
  %9 = getelementptr inbounds nuw %class.InterfaceTreeCacheModel, ptr %3, i32 0, i32 1
  %10 = load ptr, ptr %9, align 8
  %11 = icmp eq ptr %10, null
  br i1 %11, label %16, label %12

12:                                               ; preds = %8
  %13 = load ptr, ptr %10, align 8
  %14 = getelementptr inbounds ptr, ptr %13, i64 4
  %15 = load ptr, ptr %14, align 8
  call void %15(ptr noundef align 8 dereferenceable_or_null(32) %10) #22
  br label %16

16:                                               ; preds = %12, %8
  %17 = getelementptr inbounds nuw %class.InterfaceTreeCacheModel, ptr %3, i32 0, i32 4
  call void @_ZN5QListI20InterfaceTreeColumnsED2Ev(ptr noundef align 8 dereferenceable_or_null(24) %17) #22
  %18 = getelementptr inbounds nuw %class.InterfaceTreeCacheModel, ptr %3, i32 0, i32 3
  call void @_ZN5QListI20InterfaceTreeColumnsED2Ev(ptr noundef align 8 dereferenceable_or_null(24) %18) #22
  call void @_ZN19QIdentityProxyModelD2Ev(ptr noundef align 8 dereferenceable_or_null(16) %3) #22
  ret void
}