; Function Attrs: mustprogress nounwind null_pointer_is_valid sspstrong uwtable
define void @_ZN23InterfaceTreeCacheModelD2Ev(ptr noundef align 8 dereferenceable_or_null(80) initializes((0, 8)) %0) unnamed_addr #7 align 2 personality ptr @__gxx_personality_v0 {
  store ptr getelementptr inbounds nuw inrange(-16, 432) (i8, ptr @_ZTV23InterfaceTreeCacheModel, i64 16), ptr %0, align 8
  %2 = getelementptr inbounds nuw i8, ptr %0, i64 24
  %3 = load ptr, ptr %2, align 8
  %4 = icmp eq ptr %3, null
  br i1 %4, label %19, label %5

5:                                                ; preds = %1
  %6 = load ptr, ptr %3, align 8
  %.not.i.i = icmp eq ptr %6, null
  br i1 %.not.i.i, label %_ZN4QMapIi14QSharedPointerIS_I20InterfaceTreeColumns8QVariantEEED2Ev.exit, label %7

7:                                                ; preds = %5
  %8 = atomicrmw sub ptr %6, i32 1 seq_cst, align 4
  %.not2.i.i = icmp eq i32 %8, 1
  br i1 %.not2.i.i, label %9, label %_ZN4QMapIi14QSharedPointerIS_I20InterfaceTreeColumns8QVariantEEED2Ev.exit

9:                                                ; preds = %7
  %10 = load ptr, ptr %3, align 8
  %11 = icmp eq ptr %10, null
  br i1 %11, label %_ZN4QMapIi14QSharedPointerIS_I20InterfaceTreeColumns8QVariantEEED2Ev.exit, label %12

12:                                               ; preds = %9
  %13 = getelementptr inbounds nuw i8, ptr %10, i64 8
  %14 = getelementptr inbounds nuw i8, ptr %10, i64 24
  %15 = load ptr, ptr %14, align 8
  invoke void @_ZNSt8_Rb_treeIiSt4pairIKi14QSharedPointerI4QMapI20InterfaceTreeColumns8QVariantEEESt10_Select1stIS8_ESt4lessIiESaIS8_EE8_M_eraseEPSt13_Rb_tree_nodeIS8_E(ptr noundef nonnull align 8 dereferenceable_or_null(48) %13, ptr noundef %15)
          to label %_ZN8QMapDataISt3mapIi14QSharedPointerI4QMapI20InterfaceTreeColumns8QVariantEESt4lessIiESaISt4pairIKiS6_EEEED2Ev.exit.i.i unwind label %16

16:                                               ; preds = %12
  %17 = landingpad { ptr, i32 }
          catch ptr null
  %18 = extractvalue { ptr, i32 } %17, 0
  tail call void @__clang_call_terminate(ptr %18) #23
  unreachable

_ZN8QMapDataISt3mapIi14QSharedPointerI4QMapI20InterfaceTreeColumns8QVariantEESt4lessIiESaISt4pairIKiS6_EEEED2Ev.exit.i.i: ; preds = %12
  tail call void @_ZdlPvm(ptr noundef nonnull %10, i64 noundef 56) #21
  br label %_ZN4QMapIi14QSharedPointerIS_I20InterfaceTreeColumns8QVariantEEED2Ev.exit

_ZN4QMapIi14QSharedPointerIS_I20InterfaceTreeColumns8QVariantEEED2Ev.exit: ; preds = %5, %7, %9, %_ZN8QMapDataISt3mapIi14QSharedPointerI4QMapI20InterfaceTreeColumns8QVariantEESt4lessIiESaISt4pairIKiS6_EEEED2Ev.exit.i.i
  tail call void @_ZdlPvm(ptr noundef nonnull %3, i64 noundef 8) #21
  br label %19

19:                                               ; preds = %_ZN4QMapIi14QSharedPointerIS_I20InterfaceTreeColumns8QVariantEEED2Ev.exit, %1
  %20 = getelementptr inbounds nuw i8, ptr %0, i64 16
  %21 = load ptr, ptr %20, align 8
  %22 = icmp eq ptr %21, null
  br i1 %22, label %27, label %23

23:                                               ; preds = %19
  %24 = load ptr, ptr %21, align 8
  %25 = getelementptr inbounds nuw i8, ptr %24, i64 32
  %26 = load ptr, ptr %25, align 8
  tail call void %26(ptr noundef nonnull align 8 dereferenceable_or_null(32) %21) #22
  br label %27

27:                                               ; preds = %23, %19
  %28 = getelementptr inbounds nuw i8, ptr %0, i64 56
  %29 = load ptr, ptr %28, align 8
  %.not.i.i.i = icmp eq ptr %29, null
  br i1 %.not.i.i.i, label %_ZN5QListI20InterfaceTreeColumnsED2Ev.exit, label %_ZN17QArrayDataPointerI20InterfaceTreeColumnsE5derefEv.exit.i.i

_ZN17QArrayDataPointerI20InterfaceTreeColumnsE5derefEv.exit.i.i: ; preds = %27
  %30 = atomicrmw sub ptr %29, i32 1 seq_cst, align 4
  %.not.i.i2 = icmp eq i32 %30, 1
  br i1 %.not.i.i2, label %31, label %_ZN5QListI20InterfaceTreeColumnsED2Ev.exit

31:                                               ; preds = %_ZN17QArrayDataPointerI20InterfaceTreeColumnsE5derefEv.exit.i.i
  %32 = load ptr, ptr %28, align 8
  tail call void @_ZN10QArrayData10deallocateEPS_xx(ptr noundef %32, i64 noundef 4, i64 noundef 8) #22
  br label %_ZN5QListI20InterfaceTreeColumnsED2Ev.exit

_ZN5QListI20InterfaceTreeColumnsED2Ev.exit:       ; preds = %27, %_ZN17QArrayDataPointerI20InterfaceTreeColumnsE5derefEv.exit.i.i, %31
  %33 = getelementptr inbounds nuw i8, ptr %0, i64 32
  %34 = load ptr, ptr %33, align 8
  %.not.i.i.i3 = icmp eq ptr %34, null
  br i1 %.not.i.i.i3, label %_ZN5QListI20InterfaceTreeColumnsED2Ev.exit6, label %_ZN17QArrayDataPointerI20InterfaceTreeColumnsE5derefEv.exit.i.i4

_ZN17QArrayDataPointerI20InterfaceTreeColumnsE5derefEv.exit.i.i4: ; preds = %_ZN5QListI20InterfaceTreeColumnsED2Ev.exit
  %35 = atomicrmw sub ptr %34, i32 1 seq_cst, align 4
  %.not.i.i5 = icmp eq i32 %35, 1
  br i1 %.not.i.i5, label %36, label %_ZN5QListI20InterfaceTreeColumnsED2Ev.exit6

36:                                               ; preds = %_ZN17QArrayDataPointerI20InterfaceTreeColumnsE5derefEv.exit.i.i4
  %37 = load ptr, ptr %33, align 8
  tail call void @_ZN10QArrayData10deallocateEPS_xx(ptr noundef %37, i64 noundef 4, i64 noundef 8) #22
  br label %_ZN5QListI20InterfaceTreeColumnsED2Ev.exit6

_ZN5QListI20InterfaceTreeColumnsED2Ev.exit6:      ; preds = %_ZN5QListI20InterfaceTreeColumnsED2Ev.exit, %_ZN17QArrayDataPointerI20InterfaceTreeColumnsE5derefEv.exit.i.i4, %36
  tail call void @_ZN19QIdentityProxyModelD2Ev(ptr noundef align 8 dereferenceable_or_null(16) %0) #22
  ret void
}